target datalayout = "e-m:e-p270:32:32-p271:32:32-p272:64:64-i64:64-i128:128-f80:128-n8:16:32:64-S128"
target triple = "x86_64-pc-linux-gnu"

%class.HandlerTableEntry = type { i32, i32, i32 }
%class.ExceptionHandlerTable = type <{ ptr, i32, i32, %class.ReallocMark, [7 x i8] }>
%class.ReallocMark = type { i8 }

@g_assert_poison = external global ptr, align 8
@.str = private unnamed_addr constant [49 x i8] c"src/hotspot/share/code/exceptionHandlerTable.cpp\00", align 1
@.str.4 = private unnamed_addr constant [28 x i8] c"guarantee(_size > 0) failed\00", align 1
@.str.5 = private unnamed_addr constant [72 x i8] c"no space allocated => cannot grow the table since it is part of nmethod\00", align 1

; Function Attrs: mustprogress nounwind uwtable
define linkonce_odr hidden void @_ZN11ReallocMark5checkEv(ptr noundef nonnull align 1 dereferenceable(1) %0) #1 comdat align 2 {
  %2 = alloca ptr, align 8
  store ptr %0, ptr %2, align 8
  ret void
}

; Function Attrs: mustprogress nounwind uwtable
define hidden void @_ZN21ExceptionHandlerTable9add_entryE17HandlerTableEntry(ptr noundef nonnull align 8 dereferenceable(17) %0, i64 %1, i32 %2) #1 align 2 {
  %4 = alloca %class.HandlerTableEntry, align 4
  %5 = alloca { i64, i32 }, align 4
  %6 = alloca ptr, align 8
  %7 = alloca i32, align 4
  %8 = getelementptr inbounds { i64, i32 }, ptr %5, i32 0, i32 0
  store i64 %1, ptr %8, align 4
  %9 = getelementptr inbounds { i64, i32 }, ptr %5, i32 0, i32 1
  store i32 %2, ptr %9, align 4
  call void @llvm.memcpy.p0.p0.i64(ptr align 4 %4, ptr align 4 %5, i64 12, i1 false)
  store ptr %0, ptr %6, align 8
  %10 = load ptr, ptr %6, align 8
  %11 = getelementptr inbounds %class.ExceptionHandlerTable, ptr %10, i32 0, i32 3
  call void @_ZN11ReallocMark5checkEv(ptr noundef nonnull align 1 dereferenceable(1) %11)
  %12 = getelementptr inbounds %class.ExceptionHandlerTable, ptr %10, i32 0, i32 1
  %13 = load i32, ptr %12, align 8
  %14 = getelementptr inbounds %class.ExceptionHandlerTable, ptr %10, i32 0, i32 2
  %15 = load i32, ptr %14, align 4
  %16 = icmp sge i32 %13, %15
  br i1 %16, label %17, label %42

17:                                               ; preds = %3
  br label %18

18:                                               ; preds = %17
  %19 = getelementptr inbounds %class.ExceptionHandlerTable, ptr %10, i32 0, i32 2
  %20 = load i32, ptr %19, align 4
  %21 = icmp sgt i32 %20, 0
  br i1 %21, label %24, label %22

22:                                               ; preds = %18
  %23 = load ptr, ptr @g_assert_poison, align 8
  store i8 88, ptr %23, align 1
  call void (ptr, i32, ptr, ptr, ...) @_Z15report_vm_errorPKciS0_S0_z(ptr noundef @.str, i32 noundef 34, ptr noundef @.str.4, ptr noundef @.str.5) #5
  unreachable

24:                                               ; preds = %18
  br label %25

25:                                               ; preds = %24
  %26 = getelementptr inbounds %class.ExceptionHandlerTable, ptr %10, i32 0, i32 2
  %27 = load i32, ptr %26, align 4
  %28 = mul nsw i32 %27, 2
  store i32 %28, ptr %7, align 4
  %29 = getelementptr inbounds %class.ExceptionHandlerTable, ptr %10, i32 0, i32 0
  %30 = load ptr, ptr %29, align 8
  %31 = getelementptr inbounds %class.ExceptionHandlerTable, ptr %10, i32 0, i32 2
  %32 = load i32, ptr %31, align 4
  %33 = sext i32 %32 to i64
  %34 = mul i64 %33, 12
  %35 = load i32, ptr %7, align 4
  %36 = sext i32 %35 to i64
  %37 = mul i64 %36, 12
  %38 = call noundef ptr @_Z25resource_reallocate_bytesPcmmN17AllocFailStrategy13AllocFailEnumE(ptr noundef %30, i64 noundef %34, i64 noundef %37, i32 noundef 0)
  %39 = getelementptr inbounds %class.ExceptionHandlerTable, ptr %10, i32 0, i32 0
  store ptr %38, ptr %39, align 8
  %40 = load i32, ptr %7, align 4
  %41 = getelementptr inbounds %class.ExceptionHandlerTable, ptr %10, i32 0, i32 2
  store i32 %40, ptr %41, align 4
  br label %42

42:                                               ; preds = %25, %3
  %43 = getelementptr inbounds %class.ExceptionHandlerTable, ptr %10, i32 0, i32 0
  %44 = load ptr, ptr %43, align 8
  %45 = getelementptr inbounds %class.ExceptionHandlerTable, ptr %10, i32 0, i32 1
  %46 = load i32, ptr %45, align 8
  %47 = add nsw i32 %46, 1
  store i32 %47, ptr %45, align 8
  %48 = sext i32 %46 to i64
  %49 = getelementptr inbounds %class.HandlerTableEntry, ptr %44, i64 %48
  call void @llvm.memcpy.p0.p0.i64(ptr align 4 %49, ptr align 4 %4, i64 12, i1 false)
  ret void
}