; Function Attrs: mustprogress nounwind uwtable
define hidden void @_ZN21ExceptionHandlerTable9add_entryE17HandlerTableEntry(ptr nocapture noundef nonnull align 8 dereferenceable(17) %0, i64 %1, i32 %2) local_unnamed_addr #0 align 2 {
  %4 = getelementptr inbounds i8, ptr %0, i64 8
  %5 = load i32, ptr %4, align 8
  %6 = getelementptr inbounds i8, ptr %0, i64 12
  %7 = load i32, ptr %6, align 4
  %.not = icmp slt i32 %5, %7
  br i1 %.not, label %._crit_edge, label %8

._crit_edge:                                      ; preds = %3
  %.pre = load ptr, ptr %0, align 8
  br label %20

8:                                                ; preds = %3
  %9 = icmp sgt i32 %7, 0
  br i1 %9, label %12, label %10

10:                                               ; preds = %8
  %11 = load ptr, ptr @g_assert_poison, align 8
  store i8 88, ptr %11, align 1
  tail call void (ptr, i32, ptr, ptr, ...) @_Z15report_vm_errorPKciS0_S0_z(ptr noundef nonnull @.str, i32 noundef 34, ptr noundef nonnull @.str.4, ptr noundef nonnull @.str.5) #8
  unreachable

12:                                               ; preds = %8
  %13 = shl nuw nsw i32 %7, 1
  %14 = load ptr, ptr %0, align 8
  %15 = zext nneg i32 %7 to i64
  %16 = mul nuw nsw i64 %15, 12
  %17 = zext nneg i32 %13 to i64
  %18 = mul nuw nsw i64 %17, 12
  %19 = tail call noundef ptr @_Z25resource_reallocate_bytesPcmmN17AllocFailStrategy13AllocFailEnumE(ptr noundef %14, i64 noundef %16, i64 noundef %18, i32 noundef 0) #9
  store ptr %19, ptr %0, align 8
  store i32 %13, ptr %6, align 4
  %.pre4 = load i32, ptr %4, align 8
  br label %20

20:                                               ; preds = %._crit_edge, %12
  %21 = phi i32 [ %5, %._crit_edge ], [ %.pre4, %12 ]
  %22 = phi ptr [ %.pre, %._crit_edge ], [ %19, %12 ]
  %23 = add nsw i32 %21, 1
  store i32 %23, ptr %4, align 8
  %24 = sext i32 %21 to i64
  %25 = getelementptr inbounds %class.HandlerTableEntry, ptr %22, i64 %24
  store i64 %1, ptr %25, align 4
  %.sroa.23.0..sroa_idx = getelementptr inbounds i8, ptr %25, i64 8
  store i32 %2, ptr %.sroa.23.0..sroa_idx, align 4
  ret void
}